target datalayout = "e-m:e-p270:32:32-p271:32:32-p272:64:64-i64:64-i128:128-f80:128-n8:16:32:64-S128"
target triple = "x86_64-pc-linux-gnu"

; Function Attrs: nounwind uwtable
define internal zeroext i1 @TailMatchesArray(i1 noundef zeroext %0, i32 noundef %1, ptr noundef %2, i32 noundef %3, ptr noundef %4) #0 {
  %6 = alloca i1, align 1
  %7 = alloca i8, align 1
  %8 = alloca i32, align 4
  %9 = alloca ptr, align 8
  %10 = alloca i32, align 4
  %11 = alloca ptr, align 8
  %12 = alloca i32, align 4
  %13 = alloca i32, align 4
  %14 = alloca ptr, align 8
  %15 = zext i1 %0 to i8
  store i8 %15, ptr %7, align 1
  store i32 %1, ptr %8, align 4
  store ptr %2, ptr %9, align 8
  store i32 %3, ptr %10, align 4
  store ptr %4, ptr %11, align 8
  %16 = load i32, ptr %8, align 4
  %17 = load i32, ptr %10, align 4
  %18 = icmp slt i32 %16, %17
  br i1 %18, label %19, label %20

19:                                               ; preds = %5
  store i1 false, ptr %6, align 1
  br label %55

20:                                               ; preds = %5
  call void @llvm.lifetime.start.p0(i64 4, ptr %12) #8
  store i32 0, ptr %12, align 4
  br label %21

21:                                               ; preds = %49, %20
  %22 = load i32, ptr %12, align 4
  %23 = load i32, ptr %10, align 4
  %24 = icmp slt i32 %22, %23
  br i1 %24, label %26, label %25

25:                                               ; preds = %21
  store i32 2, ptr %13, align 4
  br label %52

26:                                               ; preds = %21
  call void @llvm.lifetime.start.p0(i64 8, ptr %14) #8
  %27 = load ptr, ptr %11, align 8
  %28 = load i32, ptr %12, align 4
  %29 = sext i32 %28 to i64
  %30 = getelementptr inbounds ptr, ptr %27, i64 %29
  %31 = load ptr, ptr %30, align 8
  store ptr %31, ptr %14, align 8
  %32 = load ptr, ptr %14, align 8
  %33 = load ptr, ptr %9, align 8
  %34 = load i32, ptr %10, align 4
  %35 = load i32, ptr %12, align 4
  %36 = sub i32 %34, %35
  %37 = sub i32 %36, 1
  %38 = sext i32 %37 to i64
  %39 = getelementptr inbounds ptr, ptr %33, i64 %38
  %40 = load ptr, ptr %39, align 8
  %41 = load i8, ptr %7, align 1, !range !6, !noundef !7
  %42 = trunc i8 %41 to i1
  %43 = call zeroext i1 @word_matches(ptr noundef %32, ptr noundef %40, i1 noundef zeroext %42)
  br i1 %43, label %45, label %44

44:                                               ; preds = %26
  store i1 false, ptr %6, align 1
  store i32 1, ptr %13, align 4
  br label %46

45:                                               ; preds = %26
  store i32 0, ptr %13, align 4
  br label %46

46:                                               ; preds = %45, %44
  call void @llvm.lifetime.end.p0(i64 8, ptr %14) #8
  %47 = load i32, ptr %13, align 4
  switch i32 %47, label %52 [
    i32 0, label %48
  ]

48:                                               ; preds = %46
  br label %49

49:                                               ; preds = %48
  %50 = load i32, ptr %12, align 4
  %51 = add i32 %50, 1
  store i32 %51, ptr %12, align 4
  br label %21, !llvm.loop !19

52:                                               ; preds = %46, %25
  call void @llvm.lifetime.end.p0(i64 4, ptr %12) #8
  %53 = load i32, ptr %13, align 4
  switch i32 %53, label %57 [
    i32 2, label %54
    i32 1, label %55
  ]

54:                                               ; preds = %52
  store i1 true, ptr %6, align 1
  br label %55

55:                                               ; preds = %54, %52, %19
  %56 = load i1, ptr %6, align 1
  ret i1 %56

57:                                               ; preds = %52
  unreachable
}

; Function Attrs: nounwind uwtable
define internal zeroext i1 @HeadMatchesArray(i1 noundef zeroext %0, i32 noundef %1, ptr noundef %2, i32 noundef %3, ptr noundef %4) #0 {
  %6 = alloca i1, align 1
  %7 = alloca i8, align 1
  %8 = alloca i32, align 4
  %9 = alloca ptr, align 8
  %10 = alloca i32, align 4
  %11 = alloca ptr, align 8
  %12 = alloca i32, align 4
  %13 = alloca i32, align 4
  %14 = alloca ptr, align 8
  %15 = zext i1 %0 to i8
  store i8 %15, ptr %7, align 1
  store i32 %1, ptr %8, align 4
  store ptr %2, ptr %9, align 8
  store i32 %3, ptr %10, align 4
  store ptr %4, ptr %11, align 8
  %16 = load i32, ptr %8, align 4
  %17 = load i32, ptr %10, align 4
  %18 = icmp slt i32 %16, %17
  br i1 %18, label %19, label %20

19:                                               ; preds = %5
  store i1 false, ptr %6, align 1
  br label %55

20:                                               ; preds = %5
  call void @llvm.lifetime.start.p0(i64 4, ptr %12) #8
  store i32 0, ptr %12, align 4
  br label %21

21:                                               ; preds = %49, %20
  %22 = load i32, ptr %12, align 4
  %23 = load i32, ptr %10, align 4
  %24 = icmp slt i32 %22, %23
  br i1 %24, label %26, label %25

25:                                               ; preds = %21
  store i32 2, ptr %13, align 4
  br label %52

26:                                               ; preds = %21
  call void @llvm.lifetime.start.p0(i64 8, ptr %14) #8
  %27 = load ptr, ptr %11, align 8
  %28 = load i32, ptr %12, align 4
  %29 = sext i32 %28 to i64
  %30 = getelementptr inbounds ptr, ptr %27, i64 %29
  %31 = load ptr, ptr %30, align 8
  store ptr %31, ptr %14, align 8
  %32 = load ptr, ptr %14, align 8
  %33 = load ptr, ptr %9, align 8
  %34 = load i32, ptr %8, align 4
  %35 = load i32, ptr %12, align 4
  %36 = sub i32 %34, %35
  %37 = sub i32 %36, 1
  %38 = sext i32 %37 to i64
  %39 = getelementptr inbounds ptr, ptr %33, i64 %38
  %40 = load ptr, ptr %39, align 8
  %41 = load i8, ptr %7, align 1, !range !6, !noundef !7
  %42 = trunc i8 %41 to i1
  %43 = call zeroext i1 @word_matches(ptr noundef %32, ptr noundef %40, i1 noundef zeroext %42)
  br i1 %43, label %45, label %44

44:                                               ; preds = %26
  store i1 false, ptr %6, align 1
  store i32 1, ptr %13, align 4
  br label %46

45:                                               ; preds = %26
  store i32 0, ptr %13, align 4
  br label %46

46:                                               ; preds = %45, %44
  call void @llvm.lifetime.end.p0(i64 8, ptr %14) #8
  %47 = load i32, ptr %13, align 4
  switch i32 %47, label %52 [
    i32 0, label %48
  ]

48:                                               ; preds = %46
  br label %49

49:                                               ; preds = %48
  %50 = load i32, ptr %12, align 4
  %51 = add i32 %50, 1
  store i32 %51, ptr %12, align 4
  br label %21, !llvm.loop !18

52:                                               ; preds = %46, %25
  call void @llvm.lifetime.end.p0(i64 4, ptr %12) #8
  %53 = load i32, ptr %13, align 4
  switch i32 %53, label %57 [
    i32 2, label %54
    i32 1, label %55
  ]

54:                                               ; preds = %52
  store i1 true, ptr %6, align 1
  br label %55

55:                                               ; preds = %54, %52, %19
  %56 = load i1, ptr %6, align 1
  ret i1 %56

57:                                               ; preds = %52
  unreachable
}

; Function Attrs: nounwind uwtable
define internal zeroext i1 @MatchesArray(i1 noundef zeroext %0, i32 noundef %1, ptr noundef %2, i32 noundef %3, ptr noundef %4) #0 {
  %6 = alloca i1, align 1
  %7 = alloca i8, align 1
  %8 = alloca i32, align 4
  %9 = alloca ptr, align 8
  %10 = alloca i32, align 4
  %11 = alloca ptr, align 8
  %12 = alloca i32, align 4
  %13 = alloca i32, align 4
  %14 = alloca i32, align 4
  %15 = alloca ptr, align 8
  %16 = zext i1 %0 to i8
  store i8 %16, ptr %7, align 1
  store i32 %1, ptr %8, align 4
  store ptr %2, ptr %9, align 8
  store i32 %3, ptr %10, align 4
  store ptr %4, ptr %11, align 8
  call void @llvm.lifetime.start.p0(i64 4, ptr %12) #8
  store i32 -1, ptr %12, align 4
  %17 = load i32, ptr %8, align 4
  %18 = load i32, ptr %10, align 4
  %19 = sub i32 %18, 1
  %20 = icmp slt i32 %17, %19
  br i1 %20, label %21, label %22

21:                                               ; preds = %5
  store i1 false, ptr %6, align 1
  store i32 1, ptr %13, align 4
  br label %97

22:                                               ; preds = %5
  call void @llvm.lifetime.start.p0(i64 4, ptr %14) #8
  store i32 0, ptr %14, align 4
  br label %23

23:                                               ; preds = %48, %22
  %24 = load i32, ptr %14, align 4
  %25 = load i32, ptr %10, align 4
  %26 = icmp slt i32 %24, %25
  br i1 %26, label %28, label %27

27:                                               ; preds = %23
  store i32 2, ptr %13, align 4
  br label %51

28:                                               ; preds = %23
  call void @llvm.lifetime.start.p0(i64 8, ptr %15) #8
  %29 = load ptr, ptr %11, align 8
  %30 = load i32, ptr %14, align 4
  %31 = sext i32 %30 to i64
  %32 = getelementptr inbounds ptr, ptr %29, i64 %31
  %33 = load ptr, ptr %32, align 8
  store ptr %33, ptr %15, align 8
  %34 = load ptr, ptr %15, align 8
  %35 = icmp ne ptr %34, null
  br i1 %35, label %36, label %44

36:                                               ; preds = %28
  %37 = load ptr, ptr %15, align 8
  %38 = getelementptr inbounds i8, ptr %37, i64 0
  %39 = load i8, ptr %38, align 1
  %40 = sext i8 %39 to i32
  %41 = icmp eq i32 %40, 0
  br i1 %41, label %42, label %44

42:                                               ; preds = %36
  %43 = load i32, ptr %14, align 4
  store i32 %43, ptr %12, align 4
  store i32 2, ptr %13, align 4
  br label %45

44:                                               ; preds = %36, %28
  store i32 0, ptr %13, align 4
  br label %45

45:                                               ; preds = %44, %42
  call void @llvm.lifetime.end.p0(i64 8, ptr %15) #8
  %46 = load i32, ptr %13, align 4
  switch i32 %46, label %51 [
    i32 0, label %47
  ]

47:                                               ; preds = %45
  br label %48

48:                                               ; preds = %47
  %49 = load i32, ptr %14, align 4
  %50 = add i32 %49, 1
  store i32 %50, ptr %14, align 4
  br label %23, !llvm.loop !17

51:                                               ; preds = %45, %27
  call void @llvm.lifetime.end.p0(i64 4, ptr %14) #8
  br label %52

52:                                               ; preds = %51
  %53 = load i32, ptr %12, align 4
  %54 = icmp slt i32 %53, 0
  br i1 %54, label %55, label %70

55:                                               ; preds = %52
  %56 = load i32, ptr %8, align 4
  %57 = load i32, ptr %10, align 4
  %58 = icmp ne i32 %56, %57
  br i1 %58, label %59, label %60

59:                                               ; preds = %55
  store i1 false, ptr %6, align 1
  store i32 1, ptr %13, align 4
  br label %97

60:                                               ; preds = %55
  %61 = load i8, ptr %7, align 1, !range !6, !noundef !7
  %62 = trunc i8 %61 to i1
  %63 = load i32, ptr %8, align 4
  %64 = load ptr, ptr %9, align 8
  %65 = load i32, ptr %10, align 4
  %66 = load ptr, ptr %11, align 8
  %67 = call zeroext i1 @HeadMatchesArray(i1 noundef zeroext %62, i32 noundef %63, ptr noundef %64, i32 noundef %65, ptr noundef %66)
  br i1 %67, label %69, label %68

68:                                               ; preds = %60
  store i1 false, ptr %6, align 1
  store i32 1, ptr %13, align 4
  br label %97

69:                                               ; preds = %60
  br label %96

70:                                               ; preds = %52
  %71 = load i8, ptr %7, align 1, !range !6, !noundef !7
  %72 = trunc i8 %71 to i1
  %73 = load i32, ptr %8, align 4
  %74 = load ptr, ptr %9, align 8
  %75 = load i32, ptr %12, align 4
  %76 = load ptr, ptr %11, align 8
  %77 = call zeroext i1 @HeadMatchesArray(i1 noundef zeroext %72, i32 noundef %73, ptr noundef %74, i32 noundef %75, ptr noundef %76)
  br i1 %77, label %79, label %78

78:                                               ; preds = %70
  store i1 false, ptr %6, align 1
  store i32 1, ptr %13, align 4
  br label %97

79:                                               ; preds = %70
  %80 = load i8, ptr %7, align 1, !range !6, !noundef !7
  %81 = trunc i8 %80 to i1
  %82 = load i32, ptr %8, align 4
  %83 = load ptr, ptr %9, align 8
  %84 = load i32, ptr %10, align 4
  %85 = load i32, ptr %12, align 4
  %86 = sub i32 %84, %85
  %87 = sub i32 %86, 1
  %88 = load ptr, ptr %11, align 8
  %89 = load i32, ptr %12, align 4
  %90 = sext i32 %89 to i64
  %91 = getelementptr inbounds ptr, ptr %88, i64 %90
  %92 = getelementptr inbounds ptr, ptr %91, i64 1
  %93 = call zeroext i1 @TailMatchesArray(i1 noundef zeroext %81, i32 noundef %82, ptr noundef %83, i32 noundef %87, ptr noundef %92)
  br i1 %93, label %95, label %94

94:                                               ; preds = %79
  store i1 false, ptr %6, align 1
  store i32 1, ptr %13, align 4
  br label %97

95:                                               ; preds = %79
  br label %96

96:                                               ; preds = %95, %69
  store i1 true, ptr %6, align 1
  store i32 1, ptr %13, align 4
  br label %97

97:                                               ; preds = %96, %94, %78, %68, %59, %21
  call void @llvm.lifetime.end.p0(i64 4, ptr %12) #8
  %98 = load i1, ptr %6, align 1
  ret i1 %98
}