; Function Attrs: nounwind uwtable
define internal fastcc noundef zeroext i1 @MatchesArray(i1 noundef zeroext %0, i32 noundef %1, ptr noundef readonly captures(none) %2, i32 noundef %3, ptr noundef readonly captures(none) %4) unnamed_addr #0 {
  %6 = add i32 %3, -1
  %7 = icmp slt i32 %1, %6
  br i1 %7, label %HeadMatchesArray.exit, label %.preheader

.preheader:                                       ; preds = %5
  %8 = icmp sgt i32 %3, 0
  br i1 %8, label %.lr.ph.preheader, label %.thread58

.lr.ph.preheader:                                 ; preds = %.preheader
  %wide.trip.count = zext nneg i32 %3 to i64
  br label %.lr.ph

.lr.ph:                                           ; preds = %.lr.ph.preheader, %14
  %indvars.iv = phi i64 [ 0, %.lr.ph.preheader ], [ %indvars.iv.next, %14 ]
  %9 = getelementptr inbounds nuw ptr, ptr %4, i64 %indvars.iv
  %10 = load ptr, ptr %9, align 8
  %.not = icmp eq ptr %10, null
  br i1 %.not, label %14, label %11

11:                                               ; preds = %.lr.ph
  %12 = load i8, ptr %10, align 1
  %13 = icmp eq i8 %12, 0
  br i1 %13, label %25, label %14

14:                                               ; preds = %.lr.ph, %11
  %indvars.iv.next = add nuw nsw i64 %indvars.iv, 1
  %exitcond.not = icmp eq i64 %indvars.iv.next, %wide.trip.count
  br i1 %exitcond.not, label %.thread58, label %.lr.ph, !llvm.loop !21

.thread58:                                        ; preds = %14, %.preheader
  %.not37 = icmp eq i32 %1, %3
  br i1 %.not37, label %.preheader.i, label %HeadMatchesArray.exit

.preheader.i:                                     ; preds = %.thread58
  %15 = icmp slt i32 %3, 1
  br i1 %15, label %HeadMatchesArray.exit, label %.lr.ph.preheader.i

.lr.ph.preheader.i:                               ; preds = %.preheader.i
  %wide.trip.count.i = zext nneg i32 %3 to i64
  br label %.lr.ph.i

.lr.ph.i:                                         ; preds = %.lr.ph.i, %.lr.ph.preheader.i
  %indvars.iv.i = phi i64 [ 0, %.lr.ph.preheader.i ], [ %indvars.iv.next.i, %.lr.ph.i ]
  %16 = getelementptr inbounds nuw ptr, ptr %4, i64 %indvars.iv.i
  %17 = load ptr, ptr %16, align 8
  %18 = trunc i64 %indvars.iv.i to i32
  %19 = xor i32 %18, -1
  %20 = add i32 %3, %19
  %21 = sext i32 %20 to i64
  %22 = getelementptr inbounds ptr, ptr %2, i64 %21
  %23 = load ptr, ptr %22, align 8
  %24 = tail call fastcc zeroext i1 @word_matches(ptr noundef %17, ptr noundef %23, i1 noundef zeroext %0)
  %indvars.iv.next.i = add nuw nsw i64 %indvars.iv.i, 1
  %exitcond.not.i = icmp ne i64 %indvars.iv.next.i, %wide.trip.count.i
  %or.cond.not = select i1 %24, i1 %exitcond.not.i, i1 false
  br i1 %or.cond.not, label %.lr.ph.i, label %HeadMatchesArray.exit, !llvm.loop !9

25:                                               ; preds = %11
  %26 = trunc nuw nsw i64 %indvars.iv to i32
  %27 = icmp slt i32 %1, %26
  br i1 %27, label %HeadMatchesArray.exit, label %.preheader.i38

.preheader.i38:                                   ; preds = %25
  %28 = icmp eq i64 %indvars.iv, 0
  br i1 %28, label %.loopexit, label %.lr.ph.preheader.i39

.lr.ph.preheader.i39:                             ; preds = %.preheader.i38
  %wide.trip.count.i40 = and i64 %indvars.iv, 4294967295
  br label %.lr.ph.i41

29:                                               ; preds = %.lr.ph.i41
  %indvars.iv.next.i44 = add nuw nsw i64 %indvars.iv.i42, 1
  %exitcond.not.i45 = icmp eq i64 %indvars.iv.next.i44, %wide.trip.count.i40
  br i1 %exitcond.not.i45, label %.loopexit, label %.lr.ph.i41, !llvm.loop !9

.lr.ph.i41:                                       ; preds = %29, %.lr.ph.preheader.i39
  %indvars.iv.i42 = phi i64 [ 0, %.lr.ph.preheader.i39 ], [ %indvars.iv.next.i44, %29 ]
  %30 = getelementptr inbounds nuw ptr, ptr %4, i64 %indvars.iv.i42
  %31 = load ptr, ptr %30, align 8
  %32 = trunc i64 %indvars.iv.i42 to i32
  %33 = xor i32 %32, -1
  %34 = add i32 %1, %33
  %35 = sext i32 %34 to i64
  %36 = getelementptr inbounds ptr, ptr %2, i64 %35
  %37 = load ptr, ptr %36, align 8
  %38 = tail call fastcc zeroext i1 @word_matches(ptr noundef %31, ptr noundef %37, i1 noundef zeroext %0)
  br i1 %38, label %29, label %HeadMatchesArray.exit

.loopexit:                                        ; preds = %29, %.preheader.i38
  %.pre-phi = phi i64 [ 0, %.preheader.i38 ], [ %wide.trip.count.i40, %29 ]
  %39 = xor i32 %26, -1
  %40 = add nsw i32 %3, %39
  %41 = getelementptr inbounds nuw ptr, ptr %4, i64 %.pre-phi
  %42 = getelementptr inbounds nuw i8, ptr %41, i64 8
  %43 = icmp slt i32 %1, %40
  br i1 %43, label %HeadMatchesArray.exit, label %.preheader.i47

.preheader.i47:                                   ; preds = %.loopexit
  %44 = icmp slt i32 %40, 1
  br i1 %44, label %HeadMatchesArray.exit, label %.lr.ph.preheader.i48

.lr.ph.preheader.i48:                             ; preds = %.preheader.i47
  %wide.trip.count.i49 = zext nneg i32 %40 to i64
  br label %.lr.ph.i50

.lr.ph.i50:                                       ; preds = %.lr.ph.i50, %.lr.ph.preheader.i48
  %indvars.iv.i51 = phi i64 [ 0, %.lr.ph.preheader.i48 ], [ %indvars.iv.next.i53, %.lr.ph.i50 ]
  %45 = getelementptr inbounds nuw ptr, ptr %42, i64 %indvars.iv.i51
  %46 = load ptr, ptr %45, align 8
  %47 = trunc i64 %indvars.iv.i51 to i32
  %48 = xor i32 %47, -1
  %49 = add i32 %40, %48
  %50 = sext i32 %49 to i64
  %51 = getelementptr inbounds ptr, ptr %2, i64 %50
  %52 = load ptr, ptr %51, align 8
  %53 = tail call fastcc zeroext i1 @word_matches(ptr noundef %46, ptr noundef %52, i1 noundef zeroext %0)
  %indvars.iv.next.i53 = add nuw nsw i64 %indvars.iv.i51, 1
  %exitcond.not.i54 = icmp ne i64 %indvars.iv.next.i53, %wide.trip.count.i49
  %or.cond83.not = select i1 %53, i1 %exitcond.not.i54, i1 false
  br i1 %or.cond83.not, label %.lr.ph.i50, label %HeadMatchesArray.exit, !llvm.loop !10

HeadMatchesArray.exit:                            ; preds = %.lr.ph.i41, %.lr.ph.i50, %.lr.ph.i, %.preheader.i47, %.preheader.i, %.loopexit, %25, %.thread58, %5
  %.0 = phi i1 [ false, %5 ], [ false, %.thread58 ], [ false, %25 ], [ false, %.loopexit ], [ true, %.preheader.i ], [ true, %.preheader.i47 ], [ %24, %.lr.ph.i ], [ %53, %.lr.ph.i50 ], [ false, %.lr.ph.i41 ]
  ret i1 %.0
}